(icmyPackage
PtsCount
p0
(dp1
S'CEpkLst'
p2
(lp3
S'F:\\Programs\\Eclipse\\CE_relation\\CEsummary\\kg\\CEPerDic\\f0001_CE.pk'
p4
aS'F:\\Programs\\Eclipse\\CE_relation\\CEsummary\\kg\\CEPerDic\\f0002_CE.pk'
p5
aS'F:\\Programs\\Eclipse\\CE_relation\\CEsummary\\kg\\CEPerDic\\f0003_CE.pk'
p6
aS'F:\\Programs\\Eclipse\\CE_relation\\CEsummary\\kg\\CEPerDic\\f0014_CE.pk'
p7
aS'F:\\Programs\\Eclipse\\CE_relation\\CEsummary\\kg\\CEPerDic\\f0015_CE.pk'
p8
aS'F:\\Programs\\Eclipse\\CE_relation\\CEsummary\\kg\\CEPerDic\\f0016_CE.pk'
p9
aS'F:\\Programs\\Eclipse\\CE_relation\\CEsummary\\kg\\CEPerDic\\f0027_CE.pk'
p10
aS'F:\\Programs\\Eclipse\\CE_relation\\CEsummary\\kg\\CEPerDic\\f0028_CE.pk'
p11
aS'F:\\Programs\\Eclipse\\CE_relation\\CEsummary\\kg\\CEPerDic\\f0029_CE.pk'
p12
asS'PtsNums'
p13
(lp14
I50
aI12
aI8
aI1
aI2
aI0
aI0
aI0
aI0
aI0
aI0
aI0
aI0
aI0
aI28
aI35
aI2
aI2
aI0
aI0
aI0
aI0
aI0
aI0
aI0
aI0
aI0
aI0
aI0
aI4
aI0
aI0
aI0
aI0
aI0
aI0
aI0
aI0
aI2
aI0
aI0
aI0
aI0
aI0
aI60
aI0
aI0
aI11
aI14
aI1
aI0
aI0
aI0
aI0
aI0
aI55
aI15
aI0
aI0
aI1
aI0
aI0
aI0
aI0
aI0
aI0
aI0
aI10
aI57
aI0
aI0
aI0
aI9
aI0
aI0
aI9
aI29
aI24
aI7
aI17
aI77
aI37
aI2
aI1
aI0
aI1
aI10
aI0
aI13
aI1
aI13
aI5
aI2
aI3
aI9
aI5
aI0
aI0
aI2
aI0
aI6
aI0
aI0
aI0
aI0
aI0
aI1
aI1
aI0
aI0
aI0
aI0
aI1
aI1
aI1
aI9
aI0
aI0
aI0
aI0
aI0
aI0
aI0
aI0
aI0
aI0
aI0
aI0
aI0
aI0
aI0
aI0
aI0
aI0
aI0
aI0
aI2
aI1
aI0
aI0
aI2
aI0
aI0
aI0
aI0
asb.